target datalayout = "e-m:e-p270:32:32-p271:32:32-p272:64:64-i64:64-i128:128-f80:128-n8:16:32:64-S128"
target triple = "x86_64-pc-linux-gnu"

%struct.mbedtls_ssl_context = type { ptr, i32, i32, i32, i32, i32, ptr, ptr, ptr, ptr, ptr, ptr, ptr, ptr, ptr, ptr, ptr, ptr, ptr, ptr, ptr, ptr, ptr, ptr, ptr, ptr, ptr, ptr, ptr, ptr, ptr, ptr, ptr, i32, i64, i64, i16, i64, i64, i64, i64, i32, i32, i8, i8, i32, i8, ptr, ptr, ptr, ptr, ptr, ptr, ptr, i32, i64, i64, [8 x i8], i16, ptr, ptr, ptr, i64, i32, i64, [12 x i8], [12 x i8], [32 x i8], i8, i8, ptr, ptr, %union.mbedtls_ssl_user_data_t }
%union.mbedtls_ssl_user_data_t = type { i64 }
%struct.mbedtls_mpi = type { ptr, i16, i16 }
%struct.mbedtls_ssl_handshake_params = type { i8, i8, i8, i8, i8, i32, i8, i8, i8, i8, ptr, ptr, ptr, ptr, ptr, i8, i8, i8, i8, i16, i16, [20 x i16], ptr, ptr, %struct.mbedtls_dhm_context, %struct.mbedtls_ecdh_context, i16, i64, i32, i8, [1024 x i8], i64, ptr, ptr, i64, i16, ptr, ptr, ptr, ptr, %struct.anon, ptr, i16, i8, i32, i32, i32, ptr, ptr, ptr, i32, ptr, [8 x i8], i8, [32 x i8], i8, i16, %struct.mbedtls_md_context_t, %struct.mbedtls_md_context_t, i16, i8, %union.anon.1, [64 x i8], [1076 x i8], i64, i32, i32, i8, ptr, ptr, %union.anon.4, %struct.mbedtls_ssl_tls13_handshake_secrets, ptr, i64, ptr }
%struct.mbedtls_dhm_context = type { %struct.mbedtls_mpi, %struct.mbedtls_mpi, %struct.mbedtls_mpi, %struct.mbedtls_mpi, %struct.mbedtls_mpi, %struct.mbedtls_mpi, %struct.mbedtls_mpi, %struct.mbedtls_mpi, %struct.mbedtls_mpi, %struct.mbedtls_mpi }
%struct.mbedtls_ecdh_context = type { i8, i32, i32, %union.anon }
%union.anon = type { %struct.mbedtls_ecdh_context_mbed }
%struct.mbedtls_ecdh_context_mbed = type { %struct.mbedtls_ecp_group, %struct.mbedtls_mpi, %struct.mbedtls_ecp_point, %struct.mbedtls_ecp_point, %struct.mbedtls_mpi }
%struct.mbedtls_ecp_group = type { i32, %struct.mbedtls_mpi, %struct.mbedtls_mpi, %struct.mbedtls_mpi, %struct.mbedtls_ecp_point, %struct.mbedtls_mpi, i64, i64, i32, ptr, ptr, ptr, ptr, ptr, i64 }
%struct.mbedtls_ecp_point = type { %struct.mbedtls_mpi, %struct.mbedtls_mpi, %struct.mbedtls_mpi }
%struct.anon = type { i64, i8, [4 x %struct.mbedtls_ssl_hs_buffer], %struct.anon.0 }
%struct.mbedtls_ssl_hs_buffer = type { i8, ptr, i64 }
%struct.anon.0 = type { ptr, i64, i32 }
%struct.mbedtls_md_context_t = type { ptr, ptr, ptr }
%union.anon.1 = type { %struct.anon.2 }
%struct.anon.2 = type { i8, [64 x i8], i64 }
%union.anon.4 = type { [64 x i8] }
%struct.mbedtls_ssl_tls13_handshake_secrets = type { [64 x i8], [64 x i8] }

@.str = private unnamed_addr constant [130 x i8] c"generated/home/dtcxzyw/WorkSpace/Projects/compilers/llvm-opt-benchmark/bench/lief/bench_build/mbed_src/library/ssl_tls13_client.c\00", align 1
@.str.34 = private unnamed_addr constant [25 x i8] c"missing input data in %s\00", align 1
@.str.44 = private unnamed_addr constant [27 x i8] c"ssl_tls13_parse_cookie_ext\00", align 1
@.str.52 = private unnamed_addr constant [17 x i8] c"cookie extension\00", align 1
@.str.53 = private unnamed_addr constant [27 x i8] c"alloc failed ( %ud bytes )\00", align 1

; Function Attrs: alwaysinline nounwind uwtable
define internal zeroext i16 @mbedtls_get_unaligned_uint16(ptr noundef %0) #4 {
  %2 = alloca ptr, align 8
  %3 = alloca i16, align 2
  store ptr %0, ptr %2, align 8, !tbaa !46
  call void @llvm.lifetime.start.p0(i64 2, ptr %3) #10
  %4 = load ptr, ptr %2, align 8, !tbaa !46
  call void @llvm.memcpy.p0.p0.i64(ptr align 2 %3, ptr align 1 %4, i64 2, i1 false)
  %5 = load i16, ptr %3, align 2, !tbaa !47
  call void @llvm.lifetime.end.p0(i64 2, ptr %3) #10
  ret i16 %5
}

; Function Attrs: inlinehint nounwind uwtable
define internal i32 @mbedtls_ssl_chk_buf_ptr(ptr noundef %0, ptr noundef %1, i64 noundef %2) #3 {
  %4 = alloca ptr, align 8
  %5 = alloca ptr, align 8
  %6 = alloca i64, align 8
  store ptr %0, ptr %4, align 8, !tbaa !8
  store ptr %1, ptr %5, align 8, !tbaa !8
  store i64 %2, ptr %6, align 8, !tbaa !14
  %7 = load ptr, ptr %4, align 8, !tbaa !8
  %8 = load ptr, ptr %5, align 8, !tbaa !8
  %9 = icmp ugt ptr %7, %8
  br i1 %9, label %18, label %10

10:                                               ; preds = %3
  %11 = load i64, ptr %6, align 8, !tbaa !14
  %12 = load ptr, ptr %5, align 8, !tbaa !8
  %13 = load ptr, ptr %4, align 8, !tbaa !8
  %14 = ptrtoint ptr %12 to i64
  %15 = ptrtoint ptr %13 to i64
  %16 = sub i64 %14, %15
  %17 = icmp ugt i64 %11, %16
  br label %18

18:                                               ; preds = %10, %3
  %19 = phi i1 [ true, %3 ], [ %17, %10 ]
  %20 = zext i1 %19 to i32
  ret i32 %20
}

; Function Attrs: nounwind uwtable
define internal i32 @ssl_tls13_parse_cookie_ext(ptr noundef %0, ptr noundef %1, ptr noundef %2) #0 {
  %4 = alloca i32, align 4
  %5 = alloca ptr, align 8
  %6 = alloca ptr, align 8
  %7 = alloca ptr, align 8
  %8 = alloca i16, align 2
  %9 = alloca ptr, align 8
  %10 = alloca ptr, align 8
  %11 = alloca i32, align 4
  store ptr %0, ptr %5, align 8, !tbaa !3
  store ptr %1, ptr %6, align 8, !tbaa !8
  store ptr %2, ptr %7, align 8, !tbaa !8
  call void @llvm.lifetime.start.p0(i64 2, ptr %8) #10
  call void @llvm.lifetime.start.p0(i64 8, ptr %9) #10
  %12 = load ptr, ptr %6, align 8, !tbaa !8
  store ptr %12, ptr %9, align 8, !tbaa !8
  call void @llvm.lifetime.start.p0(i64 8, ptr %10) #10
  %13 = load ptr, ptr %5, align 8, !tbaa !3
  %14 = getelementptr inbounds nuw %struct.mbedtls_ssl_context, ptr %13, i32 0, i32 16
  %15 = load ptr, ptr %14, align 8, !tbaa !52
  store ptr %15, ptr %10, align 8, !tbaa !65
  br label %16

16:                                               ; preds = %3
  %17 = load ptr, ptr %9, align 8, !tbaa !8
  %18 = load ptr, ptr %7, align 8, !tbaa !8
  %19 = call i32 @mbedtls_ssl_chk_buf_ptr(ptr noundef %17, ptr noundef %18, i64 noundef 2)
  %20 = icmp ne i32 %19, 0
  br i1 %20, label %21, label %24

21:                                               ; preds = %16
  %22 = load ptr, ptr %5, align 8, !tbaa !3
  call void (ptr, i32, ptr, i32, ptr, ...) @mbedtls_debug_print_msg(ptr noundef %22, i32 noundef 1, ptr noundef @.str, i32 noundef 538, ptr noundef @.str.34, ptr noundef @.str.44)
  %23 = load ptr, ptr %5, align 8, !tbaa !3
  call void @mbedtls_ssl_pend_fatal_alert(ptr noundef %23, i8 noundef zeroext 50, i32 noundef -29440)
  store i32 -29440, ptr %4, align 4
  store i32 1, ptr %11, align 4
  br label %80

24:                                               ; preds = %16
  br label %25

25:                                               ; preds = %24
  br label %26

26:                                               ; preds = %25
  %27 = load ptr, ptr %9, align 8, !tbaa !8
  %28 = getelementptr inbounds i8, ptr %27, i64 0
  %29 = call zeroext i16 @mbedtls_get_unaligned_uint16(ptr noundef %28)
  %30 = call i16 @llvm.bswap.i16(i16 %29)
  %31 = zext i16 %30 to i32
  %32 = trunc i32 %31 to i16
  store i16 %32, ptr %8, align 2, !tbaa !47
  %33 = load ptr, ptr %9, align 8, !tbaa !8
  %34 = getelementptr inbounds i8, ptr %33, i64 2
  store ptr %34, ptr %9, align 8, !tbaa !8
  br label %35

35:                                               ; preds = %26
  %36 = load ptr, ptr %9, align 8, !tbaa !8
  %37 = load ptr, ptr %7, align 8, !tbaa !8
  %38 = load i16, ptr %8, align 2, !tbaa !47
  %39 = zext i16 %38 to i64
  %40 = call i32 @mbedtls_ssl_chk_buf_ptr(ptr noundef %36, ptr noundef %37, i64 noundef %39)
  %41 = icmp ne i32 %40, 0
  br i1 %41, label %42, label %45

42:                                               ; preds = %35
  %43 = load ptr, ptr %5, align 8, !tbaa !3
  call void (ptr, i32, ptr, i32, ptr, ...) @mbedtls_debug_print_msg(ptr noundef %43, i32 noundef 1, ptr noundef @.str, i32 noundef 542, ptr noundef @.str.34, ptr noundef @.str.44)
  %44 = load ptr, ptr %5, align 8, !tbaa !3
  call void @mbedtls_ssl_pend_fatal_alert(ptr noundef %44, i8 noundef zeroext 50, i32 noundef -29440)
  store i32 -29440, ptr %4, align 4
  store i32 1, ptr %11, align 4
  br label %80

45:                                               ; preds = %35
  br label %46

46:                                               ; preds = %45
  br label %47

47:                                               ; preds = %46
  %48 = load ptr, ptr %5, align 8, !tbaa !3
  %49 = load ptr, ptr %9, align 8, !tbaa !8
  %50 = load i16, ptr %8, align 2, !tbaa !47
  %51 = zext i16 %50 to i64
  call void @mbedtls_debug_print_buf(ptr noundef %48, i32 noundef 3, ptr noundef @.str, i32 noundef 543, ptr noundef @.str.52, ptr noundef %49, i64 noundef %51)
  %52 = load ptr, ptr %10, align 8, !tbaa !65
  %53 = getelementptr inbounds nuw %struct.mbedtls_ssl_handshake_params, ptr %52, i32 0, i32 41
  %54 = load ptr, ptr %53, align 8, !tbaa !66
  call void @free(ptr noundef %54) #10
  %55 = load ptr, ptr %10, align 8, !tbaa !65
  %56 = getelementptr inbounds nuw %struct.mbedtls_ssl_handshake_params, ptr %55, i32 0, i32 42
  store i16 0, ptr %56, align 8, !tbaa !67
  %57 = load i16, ptr %8, align 2, !tbaa !47
  %58 = zext i16 %57 to i64
  %59 = call noalias ptr @calloc(i64 noundef 1, i64 noundef %58) #12
  %60 = load ptr, ptr %10, align 8, !tbaa !65
  %61 = getelementptr inbounds nuw %struct.mbedtls_ssl_handshake_params, ptr %60, i32 0, i32 41
  store ptr %59, ptr %61, align 8, !tbaa !66
  %62 = load ptr, ptr %10, align 8, !tbaa !65
  %63 = getelementptr inbounds nuw %struct.mbedtls_ssl_handshake_params, ptr %62, i32 0, i32 41
  %64 = load ptr, ptr %63, align 8, !tbaa !66
  %65 = icmp eq ptr %64, null
  br i1 %65, label %66, label %70

66:                                               ; preds = %47
  %67 = load ptr, ptr %5, align 8, !tbaa !3
  %68 = load i16, ptr %8, align 2, !tbaa !47
  %69 = zext i16 %68 to i32
  call void (ptr, i32, ptr, i32, ptr, ...) @mbedtls_debug_print_msg(ptr noundef %67, i32 noundef 1, ptr noundef @.str, i32 noundef 551, ptr noundef @.str.53, i32 noundef %69)
  store i32 -32512, ptr %4, align 4
  store i32 1, ptr %11, align 4
  br label %80

70:                                               ; preds = %47
  %71 = load ptr, ptr %10, align 8, !tbaa !65
  %72 = getelementptr inbounds nuw %struct.mbedtls_ssl_handshake_params, ptr %71, i32 0, i32 41
  %73 = load ptr, ptr %72, align 8, !tbaa !66
  %74 = load ptr, ptr %9, align 8, !tbaa !8
  %75 = load i16, ptr %8, align 2, !tbaa !47
  %76 = zext i16 %75 to i64
  call void @llvm.memcpy.p0.p0.i64(ptr align 1 %73, ptr align 1 %74, i64 %76, i1 false)
  %77 = load i16, ptr %8, align 2, !tbaa !47
  %78 = load ptr, ptr %10, align 8, !tbaa !65
  %79 = getelementptr inbounds nuw %struct.mbedtls_ssl_handshake_params, ptr %78, i32 0, i32 42
  store i16 %77, ptr %79, align 8, !tbaa !67
  store i32 0, ptr %4, align 4
  store i32 1, ptr %11, align 4
  br label %80

80:                                               ; preds = %70, %66, %42, %21
  call void @llvm.lifetime.end.p0(i64 8, ptr %10) #10
  call void @llvm.lifetime.end.p0(i64 8, ptr %9) #10
  call void @llvm.lifetime.end.p0(i64 2, ptr %8) #10
  %81 = load i32, ptr %4, align 4
  ret i32 %81
}