; Function Attrs: nounwind uwtable
define internal fastcc range(i32 -32512, 1) i32 @ssl_tls13_parse_cookie_ext(ptr noundef %0, ptr noundef %1, ptr noundef %2) unnamed_addr #0 {
  %4 = getelementptr inbounds nuw i8, ptr %0, i64 112
  %5 = load ptr, ptr %4, align 8, !tbaa !17
  %6 = icmp ule ptr %1, %2
  %7 = ptrtoint ptr %2 to i64
  %8 = ptrtoint ptr %1 to i64
  %9 = sub i64 %7, %8
  %10 = icmp ugt i64 %9, 1
  %narrow.i.not = and i1 %6, %10
  br i1 %narrow.i.not, label %12, label %11

11:                                               ; preds = %3
  tail call void (ptr, i32, ptr, i32, ptr, ...) @mbedtls_debug_print_msg(ptr noundef nonnull %0, i32 noundef 1, ptr noundef nonnull @.str, i32 noundef 538, ptr noundef nonnull @.str.34, ptr noundef nonnull @.str.44) #12
  tail call void @mbedtls_ssl_pend_fatal_alert(ptr noundef nonnull %0, i8 noundef zeroext 50, i32 noundef -29440) #12
  br label %30

12:                                               ; preds = %3
  %.0.copyload.i = load i16, ptr %1, align 1
  %13 = tail call i16 @llvm.bswap.i16(i16 %.0.copyload.i)
  %14 = zext i16 %13 to i32
  %15 = getelementptr inbounds nuw i8, ptr %1, i64 2
  %16 = zext i16 %13 to i64
  %17 = icmp ule ptr %15, %2
  %18 = ptrtoint ptr %15 to i64
  %19 = sub i64 %7, %18
  %20 = icmp uge i64 %19, %16
  %narrow.i30.not = and i1 %17, %20
  br i1 %narrow.i30.not, label %22, label %21

21:                                               ; preds = %12
  tail call void (ptr, i32, ptr, i32, ptr, ...) @mbedtls_debug_print_msg(ptr noundef nonnull %0, i32 noundef 1, ptr noundef nonnull @.str, i32 noundef 542, ptr noundef nonnull @.str.34, ptr noundef nonnull @.str.44) #12
  tail call void @mbedtls_ssl_pend_fatal_alert(ptr noundef nonnull %0, i8 noundef zeroext 50, i32 noundef -29440) #12
  br label %30

22:                                               ; preds = %12
  tail call void @mbedtls_debug_print_buf(ptr noundef nonnull %0, i32 noundef 3, ptr noundef nonnull @.str, i32 noundef 543, ptr noundef nonnull @.str.52, ptr noundef nonnull %15, i64 noundef %16) #12
  %23 = getelementptr inbounds nuw i8, ptr %5, i64 1872
  %24 = load ptr, ptr %23, align 8, !tbaa !60
  tail call void @free(ptr noundef %24) #12
  %25 = getelementptr inbounds nuw i8, ptr %5, i64 1880
  store i16 0, ptr %25, align 8, !tbaa !61
  %26 = tail call noalias ptr @calloc(i64 noundef 1, i64 noundef %16) #14
  store ptr %26, ptr %23, align 8, !tbaa !60
  %27 = icmp eq ptr %26, null
  br i1 %27, label %28, label %29

28:                                               ; preds = %22
  tail call void (ptr, i32, ptr, i32, ptr, ...) @mbedtls_debug_print_msg(ptr noundef nonnull %0, i32 noundef 1, ptr noundef nonnull @.str, i32 noundef 551, ptr noundef nonnull @.str.53, i32 noundef %14) #12
  br label %30

29:                                               ; preds = %22
  tail call void @llvm.memcpy.p0.p0.i64(ptr nonnull align 1 %26, ptr nonnull align 1 %15, i64 %16, i1 false)
  store i16 %13, ptr %25, align 8, !tbaa !61
  br label %30

30:                                               ; preds = %29, %28, %21, %11
  %.0 = phi i32 [ -29440, %11 ], [ -29440, %21 ], [ -32512, %28 ], [ 0, %29 ]
  ret i32 %.0
}